; Function Attrs: mustprogress uwtable
define hidden void @_Z24fail_if_model_generationPKcRK3refI4goalE(ptr noundef %tactic_name, ptr nocapture noundef nonnull readonly align 8 dereferenceable(8) %in) local_unnamed_addr #3 personality ptr @__gxx_personality_v0 {
entry:
  %msg = alloca %"class.std::__cxx11::basic_string", align 8
  %ref.tmp = alloca %"class.std::allocator", align 1
  %0 = load ptr, ptr %in, align 8
  %m_models_enabled.i = getelementptr inbounds i8, ptr %0, i64 120
  %bf.load.i = load i32, ptr %m_models_enabled.i, align 8
  %1 = and i32 %bf.load.i, 67108864
  %tobool.i.not = icmp eq i32 %1, 0
  br i1 %tobool.i.not, label %if.end, label %if.then

if.then:                                          ; preds = %entry
  call void @_ZNSaIcEC1Ev(ptr noundef nonnull align 1 dereferenceable(1) %ref.tmp) #14
  invoke void @_ZNSt7__cxx1112basic_stringIcSt11char_traitsIcESaIcEEC2IS3_EEPKcRKS3_(ptr noundef nonnull align 8 dereferenceable(32) %msg, ptr noundef %tactic_name, ptr noundef nonnull align 1 dereferenceable(1) %ref.tmp)
          to label %invoke.cont unwind label %lpad

invoke.cont:                                      ; preds = %if.then
  call void @_ZNSaIcED1Ev(ptr noundef nonnull align 1 dereferenceable(1) %ref.tmp) #14
  %call4 = invoke noundef nonnull align 8 dereferenceable(32) ptr @_ZNSt7__cxx1112basic_stringIcSt11char_traitsIcESaIcEEpLEPKc(ptr noundef nonnull align 8 dereferenceable(32) %msg, ptr noundef nonnull @.str.9)
          to label %invoke.cont3 unwind label %lpad2

invoke.cont3:                                     ; preds = %invoke.cont
  %exception = call ptr @__cxa_allocate_exception(i64 40) #14
  store ptr getelementptr inbounds ({ [6 x ptr] }, ptr @_ZTV16tactic_exception, i64 0, i32 0, i64 2), ptr %exception, align 8
  %m_msg.i = getelementptr inbounds i8, ptr %exception, i64 8
  call void @_ZNSt7__cxx1112basic_stringIcSt11char_traitsIcESaIcEEC1EOS4_(ptr noundef nonnull align 8 dereferenceable(32) %m_msg.i, ptr noundef nonnull align 8 dereferenceable(32) %msg) #14
  invoke void @__cxa_throw(ptr nonnull %exception, ptr nonnull @_ZTI16tactic_exception, ptr nonnull @_ZN16tactic_exceptionD2Ev) #16
          to label %unreachable unwind label %lpad2

lpad:                                             ; preds = %if.then
  %2 = landingpad { ptr, i32 }
          cleanup
  call void @_ZNSaIcED1Ev(ptr noundef nonnull align 1 dereferenceable(1) %ref.tmp) #14
  br label %eh.resume

lpad2:                                            ; preds = %invoke.cont3, %invoke.cont
  %3 = landingpad { ptr, i32 }
          cleanup
  call void @_ZNSt7__cxx1112basic_stringIcSt11char_traitsIcESaIcEED1Ev(ptr noundef nonnull align 8 dereferenceable(32) %msg) #14
  br label %eh.resume

if.end:                                           ; preds = %entry
  ret void

eh.resume:                                        ; preds = %lpad2, %lpad
  %.pn = phi { ptr, i32 } [ %3, %lpad2 ], [ %2, %lpad ]
  resume { ptr, i32 } %.pn

unreachable:                                      ; preds = %invoke.cont3
  unreachable
}